target datalayout = "e-m:e-p270:32:32-p271:32:32-p272:64:64-i64:64-i128:128-f80:128-n8:16:32:64-S128"
target triple = "x86_64-pc-linux-gnu"

%struct.GLFWvidmode = type { i32, i32, i32, i32, i32, i32 }

; Function Attrs: nounwind uwtable
define internal void @getVideoMode(ptr dead_on_unwind noalias writable sret(%struct.GLFWvidmode) align 4 %0) #0 {
  %2 = getelementptr inbounds nuw %struct.GLFWvidmode, ptr %0, i32 0, i32 0
  store i32 1920, ptr %2, align 4, !tbaa !7
  %3 = getelementptr inbounds nuw %struct.GLFWvidmode, ptr %0, i32 0, i32 1
  store i32 1080, ptr %3, align 4, !tbaa !10
  %4 = getelementptr inbounds nuw %struct.GLFWvidmode, ptr %0, i32 0, i32 2
  store i32 8, ptr %4, align 4, !tbaa !14
  %5 = getelementptr inbounds nuw %struct.GLFWvidmode, ptr %0, i32 0, i32 3
  store i32 8, ptr %5, align 4, !tbaa !15
  %6 = getelementptr inbounds nuw %struct.GLFWvidmode, ptr %0, i32 0, i32 4
  store i32 8, ptr %6, align 4, !tbaa !16
  %7 = getelementptr inbounds nuw %struct.GLFWvidmode, ptr %0, i32 0, i32 5
  store i32 60, ptr %7, align 4, !tbaa !17
  ret void
}

; Function Attrs: nounwind uwtable
define hidden void @_glfwGetMonitorWorkareaNull(ptr noundef %0, ptr noundef %1, ptr noundef %2, ptr noundef %3, ptr noundef %4) #0 {
  %6 = alloca ptr, align 8
  %7 = alloca ptr, align 8
  %8 = alloca ptr, align 8
  %9 = alloca ptr, align 8
  %10 = alloca ptr, align 8
  %11 = alloca %struct.GLFWvidmode, align 4
  store ptr %0, ptr %6, align 8, !tbaa !11
  store ptr %1, ptr %7, align 8, !tbaa !18
  store ptr %2, ptr %8, align 8, !tbaa !18
  store ptr %3, ptr %9, align 8, !tbaa !18
  store ptr %4, ptr %10, align 8, !tbaa !18
  call void @llvm.lifetime.start.p0(i64 24, ptr %11) #6
  call void @getVideoMode(ptr dead_on_unwind writable sret(%struct.GLFWvidmode) align 4 %11)
  %12 = load ptr, ptr %7, align 8, !tbaa !18
  %13 = icmp ne ptr %12, null
  br i1 %13, label %14, label %16

14:                                               ; preds = %5
  %15 = load ptr, ptr %7, align 8, !tbaa !18
  store i32 0, ptr %15, align 4, !tbaa !20
  br label %16

16:                                               ; preds = %14, %5
  %17 = load ptr, ptr %8, align 8, !tbaa !18
  %18 = icmp ne ptr %17, null
  br i1 %18, label %19, label %21

19:                                               ; preds = %16
  %20 = load ptr, ptr %8, align 8, !tbaa !18
  store i32 10, ptr %20, align 4, !tbaa !20
  br label %21

21:                                               ; preds = %19, %16
  %22 = load ptr, ptr %9, align 8, !tbaa !18
  %23 = icmp ne ptr %22, null
  br i1 %23, label %24, label %28

24:                                               ; preds = %21
  %25 = getelementptr inbounds nuw %struct.GLFWvidmode, ptr %11, i32 0, i32 0
  %26 = load i32, ptr %25, align 4, !tbaa !7
  %27 = load ptr, ptr %9, align 8, !tbaa !18
  store i32 %26, ptr %27, align 4, !tbaa !20
  br label %28

28:                                               ; preds = %24, %21
  %29 = load ptr, ptr %10, align 8, !tbaa !18
  %30 = icmp ne ptr %29, null
  br i1 %30, label %31, label %36

31:                                               ; preds = %28
  %32 = getelementptr inbounds nuw %struct.GLFWvidmode, ptr %11, i32 0, i32 1
  %33 = load i32, ptr %32, align 4, !tbaa !10
  %34 = sub nsw i32 %33, 10
  %35 = load ptr, ptr %10, align 8, !tbaa !18
  store i32 %34, ptr %35, align 4, !tbaa !20
  br label %36

36:                                               ; preds = %31, %28
  call void @llvm.lifetime.end.p0(i64 24, ptr %11) #6
  ret void
}