; Function Attrs: mustprogress nofree norecurse nosync nounwind willreturn memory(argmem: write) uwtable
define hidden void @_glfwGetMonitorWorkareaNull(ptr noundef readnone captures(none) %0, ptr noundef writeonly captures(address_is_null) %1, ptr noundef writeonly captures(address_is_null) %2, ptr noundef writeonly captures(address_is_null) %3, ptr noundef writeonly captures(address_is_null) %4) local_unnamed_addr #2 {
  %.not = icmp eq ptr %1, null
  br i1 %.not, label %7, label %6

6:                                                ; preds = %5
  store i32 0, ptr %1, align 4, !tbaa !3
  br label %7

7:                                                ; preds = %6, %5
  %.not11 = icmp eq ptr %2, null
  br i1 %.not11, label %9, label %8

8:                                                ; preds = %7
  store i32 10, ptr %2, align 4, !tbaa !3
  br label %9

9:                                                ; preds = %8, %7
  %.not12 = icmp eq ptr %3, null
  br i1 %.not12, label %11, label %10

10:                                               ; preds = %9
  store i32 1920, ptr %3, align 4, !tbaa !3
  br label %11

11:                                               ; preds = %10, %9
  %.not13 = icmp eq ptr %4, null
  br i1 %.not13, label %13, label %12

12:                                               ; preds = %11
  store i32 1070, ptr %4, align 4, !tbaa !3
  br label %13

13:                                               ; preds = %12, %11
  ret void
}